target datalayout = "e-m:e-p270:32:32-p271:32:32-p272:64:64-i64:64-i128:128-f80:128-n8:16:32:64-S128"
target triple = "x86_64-pc-linux-gnu"

%class.PathString = type { ptr }

@_ZL11JImage_file = internal global ptr null, align 8
@_ZL18JImageFindResource = internal global ptr null, align 8
@.str.19 = private unnamed_addr constant [10 x i8] c"java.base\00", align 1
@_ZL17JImageGetResource = internal global ptr null, align 8
@_ZL10JImageOpen = internal global ptr null, align 8
@.str.79 = private unnamed_addr constant [17 x i8] c"%s%slib%smodules\00", align 1
@.str.80 = private unnamed_addr constant [24 x i8] c"jdk/internal/vm/options\00", align 1
@_ZZL25get_jimage_version_stringvE14version_string = internal global [10 x i8] zeroinitializer, align 1
@.str.93 = private unnamed_addr constant [6 x i8] c"%d.%d\00", align 1
@_ZN19Abstract_VM_Version17_vm_major_versionE = external global i32, align 4
@_ZN19Abstract_VM_Version17_vm_minor_versionE = external global i32, align 4
@_ZN9Arguments10_java_homeE = external global ptr, align 8

; Function Attrs: mustprogress nounwind uwtable
define linkonce_odr hidden noundef ptr @_ZNK10PathString5valueEv(ptr noundef nonnull align 8 dereferenceable(8) %0) #1 comdat align 2 {
  %2 = alloca ptr, align 8
  store ptr %0, ptr %2, align 8
  %3 = load ptr, ptr %2, align 8
  %4 = getelementptr inbounds %class.PathString, ptr %3, i32 0, i32 0
  %5 = load ptr, ptr %4, align 8
  ret ptr %5
}

; Function Attrs: mustprogress nounwind uwtable
define linkonce_odr hidden noundef i32 @_ZN19Abstract_VM_Version16vm_minor_versionEv() #1 comdat align 2 {
  %1 = load i32, ptr @_ZN19Abstract_VM_Version17_vm_minor_versionE, align 4
  ret i32 %1
}

; Function Attrs: mustprogress nounwind uwtable
define linkonce_odr hidden noundef i32 @_ZN19Abstract_VM_Version16vm_major_versionEv() #1 comdat align 2 {
  %1 = load i32, ptr @_ZN19Abstract_VM_Version17_vm_major_versionE, align 4
  ret i32 %1
}

; Function Attrs: mustprogress nounwind uwtable
define linkonce_odr hidden noundef ptr @_ZNK14SystemProperty5valueEv(ptr noundef nonnull align 8 dereferenceable(26) %0) #1 comdat align 2 {
  %2 = alloca ptr, align 8
  store ptr %0, ptr %2, align 8
  %3 = load ptr, ptr %2, align 8
  %4 = call noundef ptr @_ZNK10PathString5valueEv(ptr noundef nonnull align 8 dereferenceable(8) %3)
  ret ptr %4
}

; Function Attrs: mustprogress nounwind uwtable
define internal noundef ptr @_ZL18lookup_vm_resourceP10JImageFilePKcS2_(ptr noundef %0, ptr noundef %1, ptr noundef %2) #1 {
  %4 = alloca ptr, align 8
  %5 = alloca ptr, align 8
  %6 = alloca ptr, align 8
  %7 = alloca ptr, align 8
  %8 = alloca i64, align 8
  %9 = alloca i64, align 8
  %10 = alloca ptr, align 8
  store ptr %0, ptr %5, align 8
  store ptr %1, ptr %6, align 8
  store ptr %2, ptr %7, align 8
  %11 = load ptr, ptr @_ZL18JImageFindResource, align 8
  %12 = load ptr, ptr %5, align 8
  %13 = load ptr, ptr %6, align 8
  %14 = load ptr, ptr %7, align 8
  %15 = call noundef i64 %11(ptr noundef %12, ptr noundef @.str.19, ptr noundef %13, ptr noundef %14, ptr noundef %8)
  store i64 %15, ptr %9, align 8
  %16 = load i64, ptr %9, align 8
  %17 = icmp eq i64 %16, 0
  br i1 %17, label %18, label %19

18:                                               ; preds = %3
  store ptr null, ptr %4, align 8
  br label %34

19:                                               ; preds = %3
  %20 = load i64, ptr %8, align 8
  %21 = add nsw i64 %20, 1
  %22 = mul i64 %21, 1
  %23 = call noundef ptr @_Z12AllocateHeapm8MEMFLAGSN17AllocFailStrategy13AllocFailEnumE(i64 noundef %22, i8 noundef zeroext 1, i32 noundef 0)
  store ptr %23, ptr %10, align 8
  %24 = load ptr, ptr @_ZL17JImageGetResource, align 8
  %25 = load ptr, ptr %5, align 8
  %26 = load i64, ptr %9, align 8
  %27 = load ptr, ptr %10, align 8
  %28 = load i64, ptr %8, align 8
  %29 = call noundef i64 %24(ptr noundef %25, i64 noundef %26, ptr noundef %27, i64 noundef %28)
  %30 = load ptr, ptr %10, align 8
  %31 = load i64, ptr %8, align 8
  %32 = getelementptr inbounds i8, ptr %30, i64 %31
  store i8 0, ptr %32, align 1
  %33 = load ptr, ptr %10, align 8
  store ptr %33, ptr %4, align 8
  br label %34

34:                                               ; preds = %19, %18
  %35 = load ptr, ptr %4, align 8
  ret ptr %35
}

; Function Attrs: mustprogress nounwind uwtable
define internal noundef ptr @_ZL25get_jimage_version_stringv() #1 {
  %1 = load i8, ptr @_ZZL25get_jimage_version_stringvE14version_string, align 1
  %2 = sext i8 %1 to i32
  %3 = icmp eq i32 %2, 0
  br i1 %3, label %4, label %8

4:                                                ; preds = %0
  %5 = call noundef i32 @_ZN19Abstract_VM_Version16vm_major_versionEv()
  %6 = call noundef i32 @_ZN19Abstract_VM_Version16vm_minor_versionEv()
  %7 = call i32 (ptr, i64, ptr, ...) @jio_snprintf(ptr noundef @_ZZL25get_jimage_version_stringvE14version_string, i64 noundef 10, ptr noundef @.str.93, i32 noundef %5, i32 noundef %6)
  br label %8

8:                                                ; preds = %4, %0
  ret ptr @_ZZL25get_jimage_version_stringvE14version_string
}

; Function Attrs: mustprogress nounwind uwtable
define linkonce_odr hidden noundef ptr @_ZN9Arguments13get_java_homeEv() #1 comdat align 2 {
  %1 = load ptr, ptr @_ZN9Arguments10_java_homeE, align 8
  %2 = call noundef ptr @_ZNK14SystemProperty5valueEv(ptr noundef nonnull align 8 dereferenceable(26) %1)
  ret ptr %2
}

; Function Attrs: mustprogress nounwind uwtable
define hidden noundef ptr @_ZN11ClassLoader17lookup_vm_optionsEv() #1 align 2 {
  %1 = alloca ptr, align 8
  %2 = alloca i32, align 4
  %3 = alloca [4097 x i8], align 16
  %4 = alloca ptr, align 8
  %5 = alloca ptr, align 8
  %6 = alloca ptr, align 8
  %7 = call noundef ptr @_ZN2os14file_separatorEv()
  store ptr %7, ptr %4, align 8
  call void @_ZN11ClassLoader19load_jimage_libraryEv()
  %8 = getelementptr inbounds [4097 x i8], ptr %3, i64 0, i64 0
  %9 = call noundef ptr @_ZN9Arguments13get_java_homeEv()
  %10 = load ptr, ptr %4, align 8
  %11 = load ptr, ptr %4, align 8
  %12 = call i32 (ptr, i64, ptr, ...) @jio_snprintf(ptr noundef %8, i64 noundef 4097, ptr noundef @.str.79, ptr noundef %9, ptr noundef %10, ptr noundef %11)
  %13 = load ptr, ptr @_ZL10JImageOpen, align 8
  %14 = getelementptr inbounds [4097 x i8], ptr %3, i64 0, i64 0
  %15 = call noundef ptr %13(ptr noundef %14, ptr noundef %2)
  store ptr %15, ptr @_ZL11JImage_file, align 8
  %16 = load ptr, ptr @_ZL11JImage_file, align 8
  %17 = icmp eq ptr %16, null
  br i1 %17, label %18, label %19

18:                                               ; preds = %0
  store ptr null, ptr %1, align 8
  br label %25

19:                                               ; preds = %0
  %20 = call noundef ptr @_ZL25get_jimage_version_stringv()
  store ptr %20, ptr %5, align 8
  %21 = load ptr, ptr @_ZL11JImage_file, align 8
  %22 = load ptr, ptr %5, align 8
  %23 = call noundef ptr @_ZL18lookup_vm_resourceP10JImageFilePKcS2_(ptr noundef %21, ptr noundef %22, ptr noundef @.str.80)
  store ptr %23, ptr %6, align 8
  %24 = load ptr, ptr %6, align 8
  store ptr %24, ptr %1, align 8
  br label %25

25:                                               ; preds = %19, %18
  %26 = load ptr, ptr %1, align 8
  ret ptr %26
}