; Function Attrs: mustprogress nounwind uwtable
define hidden noundef ptr @_ZN11ClassLoader17lookup_vm_optionsEv() local_unnamed_addr #0 align 2 {
  %1 = alloca i64, align 8
  %2 = alloca i32, align 4
  %3 = alloca [4097 x i8], align 16
  %4 = tail call noundef ptr @_ZN2os14file_separatorEv() #20
  tail call void @_ZN11ClassLoader19load_jimage_libraryEv()
  %5 = load ptr, ptr @_ZN9Arguments10_java_homeE, align 8
  %6 = load ptr, ptr %5, align 8
  %7 = call i32 (ptr, i64, ptr, ...) @jio_snprintf(ptr noundef nonnull %3, i64 noundef 4097, ptr noundef nonnull @.str.79, ptr noundef %6, ptr noundef %4, ptr noundef %4) #20
  %8 = load ptr, ptr @_ZL10JImageOpen, align 8
  %9 = call noundef ptr %8(ptr noundef nonnull %3, ptr noundef nonnull %2) #20
  store ptr %9, ptr @_ZL11JImage_file, align 8
  %10 = icmp eq ptr %9, null
  br i1 %10, label %31, label %11

11:                                               ; preds = %0
  %12 = load i8, ptr @_ZZL25get_jimage_version_stringvE14version_string, align 1
  %13 = icmp eq i8 %12, 0
  br i1 %13, label %14, label %_ZL25get_jimage_version_stringv.exit

14:                                               ; preds = %11
  %15 = load i32, ptr @_ZN19Abstract_VM_Version17_vm_major_versionE, align 4
  %16 = load i32, ptr @_ZN19Abstract_VM_Version17_vm_minor_versionE, align 4
  %17 = call i32 (ptr, i64, ptr, ...) @jio_snprintf(ptr noundef nonnull @_ZZL25get_jimage_version_stringvE14version_string, i64 noundef 10, ptr noundef nonnull @.str.93, i32 noundef %15, i32 noundef %16) #20
  %.pre = load ptr, ptr @_ZL11JImage_file, align 8
  br label %_ZL25get_jimage_version_stringv.exit

_ZL25get_jimage_version_stringv.exit:             ; preds = %11, %14
  %18 = phi ptr [ %9, %11 ], [ %.pre, %14 ]
  call void @llvm.lifetime.start.p0(i64 8, ptr nonnull %1)
  %19 = load ptr, ptr @_ZL18JImageFindResource, align 8
  %20 = call noundef i64 %19(ptr noundef %18, ptr noundef nonnull @.str.19, ptr noundef nonnull @_ZZL25get_jimage_version_stringvE14version_string, ptr noundef nonnull @.str.80, ptr noundef nonnull %1) #20
  %21 = icmp eq i64 %20, 0
  br i1 %21, label %_ZL18lookup_vm_resourceP10JImageFilePKcS2_.exit, label %22

22:                                               ; preds = %_ZL25get_jimage_version_stringv.exit
  %23 = load i64, ptr %1, align 8
  %24 = add nsw i64 %23, 1
  %25 = call noundef ptr @_Z12AllocateHeapm8MEMFLAGSN17AllocFailStrategy13AllocFailEnumE(i64 noundef %24, i8 noundef zeroext 1, i32 noundef 0) #20
  %26 = load ptr, ptr @_ZL17JImageGetResource, align 8
  %27 = load i64, ptr %1, align 8
  %28 = call noundef i64 %26(ptr noundef %18, i64 noundef %20, ptr noundef %25, i64 noundef %27) #20
  %29 = load i64, ptr %1, align 8
  %30 = getelementptr inbounds i8, ptr %25, i64 %29
  store i8 0, ptr %30, align 1
  br label %_ZL18lookup_vm_resourceP10JImageFilePKcS2_.exit

_ZL18lookup_vm_resourceP10JImageFilePKcS2_.exit:  ; preds = %_ZL25get_jimage_version_stringv.exit, %22
  %.0.i = phi ptr [ %25, %22 ], [ null, %_ZL25get_jimage_version_stringv.exit ]
  call void @llvm.lifetime.end.p0(i64 8, ptr nonnull %1)
  br label %31

31:                                               ; preds = %0, %_ZL18lookup_vm_resourceP10JImageFilePKcS2_.exit
  %.0 = phi ptr [ %.0.i, %_ZL18lookup_vm_resourceP10JImageFilePKcS2_.exit ], [ null, %0 ]
  ret ptr %.0
}